target datalayout = "e-m:e-p270:32:32-p271:32:32-p272:64:64-i64:64-i128:128-f80:128-n8:16:32:64-S128"
target triple = "x86_64-pc-linux-gnu"

%struct.Curl_dns_entry = type { ptr, i64, i64, i32, [1 x i8] }

@Curl_cfree = external global ptr, align 8

; Function Attrs: nounwind uwtable
define internal void @freednsentry(ptr noundef %0) #0 {
  %2 = alloca ptr, align 8
  %3 = alloca ptr, align 8
  store ptr %0, ptr %2, align 8
  %4 = load ptr, ptr %2, align 8
  store ptr %4, ptr %3, align 8
  br label %5

5:                                                ; preds = %1
  br label %6

6:                                                ; preds = %5
  %7 = load ptr, ptr %3, align 8
  %8 = getelementptr inbounds %struct.Curl_dns_entry, ptr %7, i32 0, i32 2
  %9 = load i64, ptr %8, align 8
  %10 = add nsw i64 %9, -1
  store i64 %10, ptr %8, align 8
  %11 = load ptr, ptr %3, align 8
  %12 = getelementptr inbounds %struct.Curl_dns_entry, ptr %11, i32 0, i32 2
  %13 = load i64, ptr %12, align 8
  %14 = icmp eq i64 %13, 0
  br i1 %14, label %15, label %21

15:                                               ; preds = %6
  %16 = load ptr, ptr %3, align 8
  %17 = getelementptr inbounds %struct.Curl_dns_entry, ptr %16, i32 0, i32 0
  %18 = load ptr, ptr %17, align 8
  call void @Curl_freeaddrinfo(ptr noundef %18)
  %19 = load ptr, ptr @Curl_cfree, align 8
  %20 = load ptr, ptr %3, align 8
  call void %19(ptr noundef %20)
  br label %21

21:                                               ; preds = %15, %6
  ret void
}