; Function Attrs: nounwind uwtable
define internal void @freednsentry(ptr noundef %0) #0 {
  %2 = getelementptr inbounds nuw i8, ptr %0, i64 16
  %3 = load i64, ptr %2, align 8
  %4 = add nsw i64 %3, -1
  store i64 %4, ptr %2, align 8
  %5 = icmp eq i64 %4, 0
  br i1 %5, label %6, label %9

6:                                                ; preds = %1
  %7 = load ptr, ptr %0, align 8
  tail call void @Curl_freeaddrinfo(ptr noundef %7) #12
  %8 = load ptr, ptr @Curl_cfree, align 8
  tail call void %8(ptr noundef nonnull %0) #12
  br label %9

9:                                                ; preds = %6, %1
  ret void
}